target datalayout = "e-m:e-p270:32:32-p271:32:32-p272:64:64-i64:64-i128:128-f80:128-n8:16:32:64-S128"
target triple = "x86_64-pc-linux-gnu"

%"struct.OpenImageIO::v3_1_0::ROI" = type { i32, i32, i32, i32, i32, i32, i32, i32 }
%"class.OpenImageIO::v3_1_0::ImageBuf" = type { %"class.std::unique_ptr" }
%"class.std::unique_ptr" = type { %"struct.std::__uniq_ptr_data" }
%"struct.std::__uniq_ptr_data" = type { %"class.std::__uniq_ptr_impl" }
%"class.std::__uniq_ptr_impl" = type { %"class.std::tuple" }
%"class.std::tuple" = type { %"struct.std::_Tuple_impl" }
%"struct.std::_Tuple_impl" = type { %"struct.std::_Tuple_impl.1", %"struct.std::_Head_base.2" }
%"struct.std::_Tuple_impl.1" = type { %"struct.std::_Head_base" }
%"struct.std::_Head_base" = type { ptr }
%"struct.std::_Head_base.2" = type { ptr }

@.str.10 = private unnamed_addr constant [27 x i8] c"ImageBufAlgo::deepen error\00", align 1

; Function Attrs: mustprogress uwtable
define void @_ZN11OpenImageIO6v3_1_012ImageBufAlgo6deepenERKNS0_8ImageBufEfNS0_3ROIEi(ptr dead_on_unwind noalias writable sret(%"class.OpenImageIO::v3_1_0::ImageBuf") align 8 %0, ptr noundef nonnull align 8 dereferenceable(16) %1, float noundef %2, ptr noundef byval(%"struct.OpenImageIO::v3_1_0::ROI") align 8 %3, i32 noundef %4) #6 personality ptr @__gxx_personality_v0 {
  %6 = alloca ptr, align 8
  %7 = alloca ptr, align 8
  %8 = alloca float, align 4
  %9 = alloca i32, align 4
  %10 = alloca i1, align 1
  %11 = alloca i8, align 1
  %12 = alloca %"struct.OpenImageIO::v3_1_0::ROI", align 8
  %13 = alloca ptr, align 8
  %14 = alloca i32, align 4
  store ptr %0, ptr %6, align 8
  store ptr %1, ptr %7, align 8, !tbaa !8
  store float %2, ptr %8, align 4, !tbaa !64
  store i32 %4, ptr %9, align 4, !tbaa !10
  store i1 false, ptr %10, align 1
  call void @_ZN11OpenImageIO6v3_1_08ImageBufC1Ev(ptr noundef nonnull align 8 dereferenceable(16) %0)
  call void @llvm.lifetime.start.p0(i64 1, ptr %11) #3
  %15 = load ptr, ptr %7, align 8, !tbaa !8
  %16 = load float, ptr %8, align 4, !tbaa !64
  call void @llvm.memcpy.p0.p0.i64(ptr align 4 %12, ptr align 8 %3, i64 32, i1 false), !tbaa.struct !39
  %17 = load i32, ptr %9, align 4, !tbaa !10
  %18 = invoke noundef zeroext i1 @_ZN11OpenImageIO6v3_1_012ImageBufAlgo6deepenERNS0_8ImageBufERKS2_fNS0_3ROIEi(ptr noundef nonnull align 8 dereferenceable(16) %0, ptr noundef nonnull align 8 dereferenceable(16) %15, float noundef %16, ptr noundef byval(%"struct.OpenImageIO::v3_1_0::ROI") align 8 %12, i32 noundef %17)
          to label %19 unwind label %28

19:                                               ; preds = %5
  %20 = zext i1 %18 to i8
  store i8 %20, ptr %11, align 1, !tbaa !40
  %21 = load i8, ptr %11, align 1, !tbaa !40, !range !34, !noundef !35
  %22 = trunc i8 %21 to i1
  br i1 %22, label %32, label %23

23:                                               ; preds = %19
  %24 = invoke noundef zeroext i1 @_ZNK11OpenImageIO6v3_1_08ImageBuf9has_errorEv(ptr noundef nonnull align 8 dereferenceable(16) %0)
          to label %25 unwind label %28

25:                                               ; preds = %23
  br i1 %24, label %32, label %26

26:                                               ; preds = %25
  invoke void @_ZNK11OpenImageIO6v3_1_08ImageBuf8errorfmtIA27_cJEEEvRKT_DpOT0_(ptr noundef nonnull align 8 dereferenceable(16) %0, ptr noundef nonnull align 1 dereferenceable(27) @.str.10)
          to label %27 unwind label %28

27:                                               ; preds = %26
  br label %32

28:                                               ; preds = %26, %23, %5
  %29 = landingpad { ptr, i32 }
          cleanup
  %30 = extractvalue { ptr, i32 } %29, 0
  store ptr %30, ptr %13, align 8
  %31 = extractvalue { ptr, i32 } %29, 1
  store i32 %31, ptr %14, align 4
  call void @llvm.lifetime.end.p0(i64 1, ptr %11) #3
  call void @_ZN11OpenImageIO6v3_1_08ImageBufD1Ev(ptr noundef nonnull align 8 dereferenceable(16) %0) #3
  br label %36

32:                                               ; preds = %27, %25, %19
  store i1 true, ptr %10, align 1
  call void @llvm.lifetime.end.p0(i64 1, ptr %11) #3
  %33 = load i1, ptr %10, align 1
  br i1 %33, label %35, label %34

34:                                               ; preds = %32
  call void @_ZN11OpenImageIO6v3_1_08ImageBufD1Ev(ptr noundef nonnull align 8 dereferenceable(16) %0) #3
  br label %35

35:                                               ; preds = %34, %32
  ret void

36:                                               ; preds = %28
  %37 = load ptr, ptr %13, align 8
  %38 = load i32, ptr %14, align 4
  %39 = insertvalue { ptr, i32 } poison, ptr %37, 0
  %40 = insertvalue { ptr, i32 } %39, i32 %38, 1
  resume { ptr, i32 } %40
}